; Function Attrs: nounwind uwtable
define ptr @l_Lean_initFn____x40_Lean_ReducibilityAttrs___hyg_186_(ptr noundef %0) local_unnamed_addr #2 {
  tail call void @lean_inc_heartbeat() #6
  %2 = tail call noalias ptr @mi_malloc_small(i64 noundef 32) #6
  %3 = icmp eq ptr %2, null
  br i1 %3, label %4, label %lean_alloc_closure.exit

4:                                                ; preds = %1
  tail call void @lean_internal_panic_out_of_memory() #7
  unreachable

lean_alloc_closure.exit:                          ; preds = %1
  %5 = getelementptr inbounds nuw i8, ptr %2, i64 4
  store i32 1, ptr %2, align 4, !tbaa !4
  store i32 -184549344, ptr %5, align 4
  %6 = getelementptr inbounds nuw i8, ptr %2, i64 8
  store ptr @l_Lean_initFn____x40_Lean_ReducibilityAttrs___hyg_186____lambda__1___boxed, ptr %6, align 8, !tbaa !9
  %7 = getelementptr inbounds nuw i8, ptr %2, i64 16
  store i16 4, ptr %7, align 8, !tbaa !12
  %8 = getelementptr inbounds nuw i8, ptr %2, i64 18
  store i16 1, ptr %8, align 2, !tbaa !12
  %9 = getelementptr inbounds nuw i8, ptr %2, i64 24
  store ptr inttoptr (i64 1 to ptr), ptr %9, align 8, !tbaa !9
  %10 = load ptr, ptr @l_Lean_initFn____x40_Lean_ReducibilityAttrs___hyg_186____closed__2, align 8, !tbaa !9
  %11 = load ptr, ptr @l_Lean_initFn____x40_Lean_ReducibilityAttrs___hyg_186____closed__3, align 8, !tbaa !9
  %12 = load ptr, ptr @l_Lean_initFn____x40_Lean_ReducibilityAttrs___hyg_186____closed__4, align 8, !tbaa !9
  %13 = load ptr, ptr @l_Lean_initFn____x40_Lean_ReducibilityAttrs___hyg_186____closed__5, align 8, !tbaa !9
  %14 = load ptr, ptr @l_Lean_initFn____x40_Lean_ReducibilityAttrs___hyg_186____closed__6, align 8, !tbaa !9
  tail call void @lean_inc_heartbeat() #6
  %15 = tail call noalias ptr @mi_malloc_small(i64 noundef 80) #6
  %16 = icmp eq ptr %15, null
  br i1 %16, label %17, label %lean_alloc_ctor.exit

17:                                               ; preds = %lean_alloc_closure.exit
  tail call void @lean_internal_panic_out_of_memory() #7
  unreachable

lean_alloc_ctor.exit:                             ; preds = %lean_alloc_closure.exit
  %18 = getelementptr inbounds nuw i8, ptr %15, i64 4
  %19 = getelementptr inbounds nuw i8, ptr %15, i64 72
  store i64 3, ptr %19, align 8, !tbaa !16
  store i32 1, ptr %15, align 4, !tbaa !4
  store i32 524368, ptr %18, align 4
  %20 = getelementptr inbounds nuw i8, ptr %15, i64 8
  store ptr %10, ptr %20, align 8, !tbaa !9
  %21 = getelementptr inbounds nuw i8, ptr %15, i64 16
  store ptr %11, ptr %21, align 8, !tbaa !9
  %22 = getelementptr inbounds nuw i8, ptr %15, i64 24
  store ptr %2, ptr %22, align 8, !tbaa !9
  %23 = getelementptr inbounds nuw i8, ptr %15, i64 32
  store ptr %12, ptr %23, align 8, !tbaa !9
  %24 = getelementptr inbounds nuw i8, ptr %15, i64 40
  store ptr %13, ptr %24, align 8, !tbaa !9
  %25 = getelementptr inbounds nuw i8, ptr %15, i64 48
  store ptr %13, ptr %25, align 8, !tbaa !9
  %26 = getelementptr inbounds nuw i8, ptr %15, i64 56
  store ptr %14, ptr %26, align 8, !tbaa !9
  %27 = getelementptr inbounds nuw i8, ptr %15, i64 64
  store ptr inttoptr (i64 1 to ptr), ptr %27, align 8, !tbaa !9
  %28 = tail call ptr @l_Lean_registerPersistentEnvExtensionUnsafe___rarg(ptr noundef nonnull %15, ptr noundef %0) #6
  ret ptr %28
}